target datalayout = "e-m:e-p270:32:32-p271:32:32-p272:64:64-i64:64-i128:128-f80:128-n8:16:32:64-S128"
target triple = "x86_64-pc-linux-gnu"

%struct.timespec = type { i64, i64 }

@get_real_time_ns_ascending.previous_ns = internal global i64 0, align 8

; Function Attrs: inlinehint nounwind uwtable
define internal i64 @PointerGetDatum(ptr noundef %0) #2 {
  %2 = alloca ptr, align 8
  store ptr %0, ptr %2, align 8
  %3 = load ptr, ptr %2, align 8
  %4 = ptrtoint ptr %3 to i64
  ret i64 %4
}

; Function Attrs: inlinehint nounwind uwtable
define internal i64 @UUIDPGetDatum(ptr noundef %0) #2 {
  %2 = alloca ptr, align 8
  store ptr %0, ptr %2, align 8
  %3 = load ptr, ptr %2, align 8
  %4 = call i64 @PointerGetDatum(ptr noundef %3)
  ret i64 %4
}

; Function Attrs: inlinehint nounwind uwtable
define internal i64 @get_real_time_ns_ascending() #2 {
  %1 = alloca i64, align 8
  %2 = alloca %struct.timespec, align 8
  call void @llvm.lifetime.start.p0(i64 8, ptr %1) #10
  call void @llvm.lifetime.start.p0(i64 16, ptr %2) #10
  %3 = call i32 @clock_gettime(i32 noundef 0, ptr noundef %2) #10
  %4 = getelementptr inbounds nuw %struct.timespec, ptr %2, i32 0, i32 0
  %5 = load i64, ptr %4, align 8
  %6 = mul i64 %5, 1000000000
  %7 = getelementptr inbounds nuw %struct.timespec, ptr %2, i32 0, i32 1
  %8 = load i64, ptr %7, align 8
  %9 = add i64 %6, %8
  store i64 %9, ptr %1, align 8
  %10 = load i64, ptr @get_real_time_ns_ascending.previous_ns, align 8
  %11 = add i64 %10, 245
  %12 = load i64, ptr %1, align 8
  %13 = icmp sge i64 %11, %12
  br i1 %13, label %14, label %17

14:                                               ; preds = %0
  %15 = load i64, ptr @get_real_time_ns_ascending.previous_ns, align 8
  %16 = add i64 %15, 245
  store i64 %16, ptr %1, align 8
  br label %17

17:                                               ; preds = %14, %0
  %18 = load i64, ptr %1, align 8
  store i64 %18, ptr @get_real_time_ns_ascending.previous_ns, align 8
  %19 = load i64, ptr %1, align 8
  call void @llvm.lifetime.end.p0(i64 16, ptr %2) #10
  call void @llvm.lifetime.end.p0(i64 8, ptr %1) #10
  ret i64 %19
}

; Function Attrs: nounwind uwtable
define dso_local i64 @uuidv7(ptr noundef %0) #0 {
  %2 = alloca ptr, align 8
  %3 = alloca ptr, align 8
  store ptr %0, ptr %2, align 8
  call void @llvm.lifetime.start.p0(i64 8, ptr %3) #10
  %4 = call i64 @get_real_time_ns_ascending()
  %5 = call ptr @generate_uuidv7(i64 noundef %4)
  store ptr %5, ptr %3, align 8
  %6 = load ptr, ptr %3, align 8
  %7 = call i64 @UUIDPGetDatum(ptr noundef %6)
  call void @llvm.lifetime.end.p0(i64 8, ptr %3) #10
  ret i64 %7
}