; Function Attrs: nounwind uwtable
define dso_local noundef i64 @uuidv7(ptr noundef readnone captures(none) %0) local_unnamed_addr #0 {
  %2 = alloca %struct.timespec, align 8
  call void @llvm.lifetime.start.p0(i64 16, ptr nonnull %2) #15
  %3 = call i32 @clock_gettime(i32 noundef 0, ptr noundef nonnull %2) #15
  %4 = load i64, ptr %2, align 8
  %5 = mul i64 %4, 1000000000
  %6 = getelementptr inbounds nuw i8, ptr %2, i64 8
  %7 = load i64, ptr %6, align 8
  %8 = add i64 %5, %7
  %9 = load i64, ptr @get_real_time_ns_ascending.previous_ns, align 8
  %10 = add i64 %9, 245
  %spec.select.i = call i64 @llvm.smax.i64(i64 %10, i64 %8)
  store i64 %spec.select.i, ptr @get_real_time_ns_ascending.previous_ns, align 8
  call void @llvm.lifetime.end.p0(i64 16, ptr nonnull %2) #15
  %11 = call fastcc ptr @generate_uuidv7(i64 noundef %spec.select.i)
  %12 = ptrtoint ptr %11 to i64
  ret i64 %12
}